; Function Attrs: mustprogress uwtable
define internal noundef nonnull ptr @_ZN8nanobind6detailL19keep_alive_callbackEP7_objectPKS2_l(ptr noundef %0, ptr noundef readonly captures(none) %1, i64 noundef %2) #0 {
  %4 = icmp eq i64 %2, 1
  br i1 %4, label %5, label %.critedge, !prof !3

5:                                                ; preds = %3
  %6 = load ptr, ptr %1, align 8
  %7 = getelementptr i8, ptr %6, i64 8
  %.val = load ptr, ptr %7, align 8
  %.not = icmp eq ptr %.val, @_PyWeakref_RefType
  br i1 %.not, label %8, label %.critedge, !prof !3

.critedge:                                        ; preds = %3, %5
  tail call void @_ZN8nanobind6detail16fail_unspecifiedEv() #30
  unreachable

8:                                                ; preds = %5
  %9 = load i64, ptr %6, align 8
  %10 = add nsw i64 %9, -1
  store i64 %10, ptr %6, align 8
  %.not.i = icmp eq i64 %10, 0
  br i1 %.not.i, label %11, label %_ZL10_Py_DECREFP7_object.exit

11:                                               ; preds = %8
  tail call void @_Py_Dealloc(ptr noundef nonnull %6)
  br label %_ZL10_Py_DECREFP7_object.exit

_ZL10_Py_DECREFP7_object.exit:                    ; preds = %8, %11
  %12 = load i64, ptr %0, align 8
  %13 = add nsw i64 %12, -1
  store i64 %13, ptr %0, align 8
  %.not.i3 = icmp eq i64 %13, 0
  br i1 %.not.i3, label %14, label %_ZL10_Py_DECREFP7_object.exit4

14:                                               ; preds = %_ZL10_Py_DECREFP7_object.exit
  tail call void @_Py_Dealloc(ptr noundef nonnull %0)
  br label %_ZL10_Py_DECREFP7_object.exit4

_ZL10_Py_DECREFP7_object.exit4:                   ; preds = %_ZL10_Py_DECREFP7_object.exit, %14
  %15 = load i64, ptr @_Py_NoneStruct, align 8
  %16 = add nsw i64 %15, 1
  store i64 %16, ptr @_Py_NoneStruct, align 8
  ret ptr @_Py_NoneStruct
}